(dp0
I1
(lp1
F-4.306156
aF-4.155559
aF10.99964
aF-2.312616
aF-1.211575
aF-4.119345
aF-2.222251
aF2.470617
aF-3.904776
aF5.203768
aF-2.461537
aF4.158
aF98.90697
asI2
(lp2
F5.932398
aF-6.43936
aF14.00599
aF-2.688173
aF1.568843
aF-8.43188
aF-5.37372
aF2.899151
aF-7.41444
aF6.040215
aF-2.111289
aF5.111472
aF111.1337
asI3
(lp3
F28.77612
aF-21.2115
aF4.164254
aF4.773856
aF16.66844
aF-26.23642
aF-20.53491
aF8.89632
aF-7.756347
aF6.53755
aF1.166252
aF6.595646
aF126.0896
asI4
(lp4
F30.60455
aF-25.33155
aF4.335378
aF5.925222
aF15.92782
aF-34.71153
aF-17.92589
aF13.50928
aF-5.742433
aF7.288662
aF2.280028
aF7.378442
aF129.6172
asI5
(lp5
F30.60455
aF-25.33155
aF4.335378
aF5.925222
aF15.92782
aF-34.71153
aF-17.92589
aF13.50928
aF-5.742433
aF7.288662
aF2.280028
aF7.378442
aF129.6172
asI6
(lp6
F30.60455
aF-25.33155
aF4.335378
aF5.925222
aF15.92782
aF-34.71153
aF-17.92589
aF13.50928
aF-5.742433
aF7.288662
aF2.280028
aF7.378442
aF129.6172
asI7
(lp7
F30.385
aF-27.34742
aF6.778969
aF4.932379
aF14.51712
aF-40.38003
aF-14.63823
aF14.96719
aF-6.500162
aF9.276476
aF2.53733
aF7.4652
aF131.5788
asI8
(lp8
F30.34959
aF-27.65418
aF7.30968
aF3.809896
aF15.00787
aF-42.3676
aF-13.51286
aF15.0706
aF-7.523658
aF10.85907
aF2.592336
aF7.570372
aF132.0915
as.