(dp0
I1
(lp1
F675.4233
aF341.2257
aF560.8447
aF479.6207
aF347.2295
aF401.1118
aF441.3517
aF361.7792
aF368.3716
aF304.0219
aF264.015
aF250.9556
aF1298.28
asI2
(lp2
F729.9585
aF389.9464
aF813.9097
aF553.9298
aF471.2172
aF585.7497
aF654.7409
aF434.8949
aF431.5736
aF364.9832
aF288.4801
aF264.0409
aF833.2381
asI3
(lp3
F196.3949
aF211.2757
aF663.8032
aF355.608
aF501.8604
aF873.627
aF1216.622
aF493.1368
aF423.248
aF415.6165
aF263.1882
aF237.6671
aF307.6364
asI4
(lp4
F76.57276
aF175.2052
aF491.6869
aF310.8927
aF375.4617
aF849.6206
aF1210.102
aF416.1869
aF395.3022
aF415.484
aF253.287
aF221.1476
aF230.4492
asI5
(lp5
F76.57276
aF175.2052
aF491.6869
aF310.8927
aF375.4617
aF849.6206
aF1210.102
aF416.1869
aF395.3022
aF415.484
aF253.287
aF221.1476
aF230.4492
asI6
(lp6
F76.57276
aF175.2052
aF491.6869
aF310.8927
aF375.4617
aF849.6206
aF1210.102
aF416.1869
aF395.3022
aF415.484
aF253.287
aF221.1476
aF230.4492
asI7
(lp7
F53.81543
aF153.7086
aF438.4359
aF275.577
aF342.7257
aF776.7854
aF1181.401
aF349.8313
aF363.2942
aF404.7556
aF239.6543
aF206.6362
aF184.4032
asI8
(lp8
F49.9318
aF142.4241
aF432.1903
aF259.299
aF350.6218
aF711.4229
aF1148.749
aF324.5461
aF341.2827
aF386.6066
aF232.2578
aF198.6318
aF162.8094
as.